; Function Attrs: mustprogress nofree norecurse nosync nounwind willreturn memory(read, argmem: readwrite, inaccessiblemem: none) uwtable
define noundef nonnull align 8 dereferenceable(8) ptr @_ZN2cv4gapi4s11n18ByteMemoryInStreamrsERh(ptr noundef nonnull returned align 8 dereferenceable(24) %0, ptr noundef nonnull writeonly align 1 captures(none) dereferenceable(1) initializes((0, 1)) %1) unnamed_addr #14 align 2 {
  %3 = getelementptr inbounds nuw i8, ptr %0, i64 8
  %4 = load ptr, ptr %3, align 8, !tbaa !648
  %5 = getelementptr inbounds nuw i8, ptr %0, i64 16
  %6 = load i64, ptr %5, align 8, !tbaa !645
  %7 = add i64 %6, 1
  store i64 %7, ptr %5, align 8, !tbaa !645
  %8 = load ptr, ptr %4, align 8, !tbaa !124
  %9 = getelementptr inbounds nuw i8, ptr %8, i64 %6
  %10 = load i8, ptr %9, align 1, !tbaa !56
  store i8 %10, ptr %1, align 1, !tbaa !56
  ret ptr %0
}